target datalayout = "e-m:e-p270:32:32-p271:32:32-p272:64:64-i64:64-i128:128-f80:128-n8:16:32:64-S128"
target triple = "x86_64-pc-linux-gnu"

@.str = private unnamed_addr constant [34 x i8] c"../openssl/crypto/pkcs7/pk7_lib.c\00", align 1
@__func__.PKCS7_add_signature = private unnamed_addr constant [20 x i8] c"PKCS7_add_signature\00", align 1

; Function Attrs: nounwind uwtable
define ptr @PKCS7_add_signature(ptr noundef %0, ptr noundef %1, ptr noundef %2, ptr noundef %3) #0 {
  %5 = alloca ptr, align 8
  %6 = alloca ptr, align 8
  %7 = alloca ptr, align 8
  %8 = alloca ptr, align 8
  %9 = alloca ptr, align 8
  %10 = alloca ptr, align 8
  %11 = alloca i32, align 4
  %12 = alloca i32, align 4
  store ptr %0, ptr %6, align 8, !tbaa !3
  store ptr %1, ptr %7, align 8, !tbaa !74
  store ptr %2, ptr %8, align 8, !tbaa !83
  store ptr %3, ptr %9, align 8, !tbaa !84
  call void @llvm.lifetime.start.p0(i64 8, ptr %10) #4
  store ptr null, ptr %10, align 8, !tbaa !52
  %13 = load ptr, ptr %9, align 8, !tbaa !84
  %14 = icmp eq ptr %13, null
  br i1 %14, label %15, label %31

15:                                               ; preds = %4
  call void @llvm.lifetime.start.p0(i64 4, ptr %11) #4
  %16 = load ptr, ptr %8, align 8, !tbaa !83
  %17 = call i32 @EVP_PKEY_get_default_digest_nid(ptr noundef %16, ptr noundef %11)
  %18 = icmp sle i32 %17, 0
  br i1 %18, label %19, label %20

19:                                               ; preds = %15
  store i32 2, ptr %12, align 4
  br label %28

20:                                               ; preds = %15
  %21 = load i32, ptr %11, align 4, !tbaa !8
  %22 = call ptr @OBJ_nid2sn(i32 noundef %21)
  %23 = call ptr @EVP_get_digestbyname(ptr noundef %22)
  store ptr %23, ptr %9, align 8, !tbaa !84
  %24 = load ptr, ptr %9, align 8, !tbaa !84
  %25 = icmp eq ptr %24, null
  br i1 %25, label %26, label %27

26:                                               ; preds = %20
  call void @ERR_new()
  call void @ERR_set_debug(ptr noundef @.str, i32 noundef 404, ptr noundef @__func__.PKCS7_add_signature)
  call void (i32, i32, ptr, ...) @ERR_set_error(i32 noundef 33, i32 noundef 151, ptr noundef null)
  store i32 2, ptr %12, align 4
  br label %28

27:                                               ; preds = %20
  store i32 0, ptr %12, align 4
  br label %28

28:                                               ; preds = %26, %19, %27
  call void @llvm.lifetime.end.p0(i64 4, ptr %11) #4
  %29 = load i32, ptr %12, align 4
  switch i32 %29, label %53 [
    i32 0, label %30
    i32 2, label %51
  ]

30:                                               ; preds = %28
  br label %31

31:                                               ; preds = %30, %4
  %32 = call ptr @PKCS7_SIGNER_INFO_new()
  store ptr %32, ptr %10, align 8, !tbaa !52
  %33 = icmp eq ptr %32, null
  br i1 %33, label %34, label %35

34:                                               ; preds = %31
  br label %51

35:                                               ; preds = %31
  %36 = load ptr, ptr %10, align 8, !tbaa !52
  %37 = load ptr, ptr %7, align 8, !tbaa !74
  %38 = load ptr, ptr %8, align 8, !tbaa !83
  %39 = load ptr, ptr %9, align 8, !tbaa !84
  %40 = call i32 @PKCS7_SIGNER_INFO_set(ptr noundef %36, ptr noundef %37, ptr noundef %38, ptr noundef %39)
  %41 = icmp sle i32 %40, 0
  br i1 %41, label %42, label %43

42:                                               ; preds = %35
  br label %51

43:                                               ; preds = %35
  %44 = load ptr, ptr %6, align 8, !tbaa !3
  %45 = load ptr, ptr %10, align 8, !tbaa !52
  %46 = call i32 @PKCS7_add_signer(ptr noundef %44, ptr noundef %45)
  %47 = icmp ne i32 %46, 0
  br i1 %47, label %49, label %48

48:                                               ; preds = %43
  br label %51

49:                                               ; preds = %43
  %50 = load ptr, ptr %10, align 8, !tbaa !52
  store ptr %50, ptr %5, align 8
  store i32 1, ptr %12, align 4
  br label %53

51:                                               ; preds = %28, %48, %42, %34
  %52 = load ptr, ptr %10, align 8, !tbaa !52
  call void @PKCS7_SIGNER_INFO_free(ptr noundef %52)
  store ptr null, ptr %5, align 8
  store i32 1, ptr %12, align 4
  br label %53

53:                                               ; preds = %51, %49, %28
  call void @llvm.lifetime.end.p0(i64 8, ptr %10) #4
  %54 = load ptr, ptr %5, align 8
  ret ptr %54
}