; Function Attrs: nounwind uwtable
define ptr @PKCS7_add_signature(ptr noundef %0, ptr noundef %1, ptr noundef %2, ptr noundef %3) local_unnamed_addr #0 {
  %5 = alloca i32, align 4
  %6 = icmp eq ptr %3, null
  br i1 %6, label %7, label %17

7:                                                ; preds = %4
  call void @llvm.lifetime.start.p0(i64 4, ptr nonnull %5) #7
  %8 = call i32 @EVP_PKEY_get_default_digest_nid(ptr noundef %2, ptr noundef nonnull %5) #7
  %9 = icmp slt i32 %8, 1
  br i1 %9, label %.thread, label %10

10:                                               ; preds = %7
  %11 = load i32, ptr %5, align 4, !tbaa !68
  %12 = call ptr @OBJ_nid2sn(i32 noundef %11) #7
  %13 = call ptr @EVP_get_digestbyname(ptr noundef %12) #7
  %14 = icmp eq ptr %13, null
  br i1 %14, label %15, label %16

15:                                               ; preds = %10
  call void @ERR_new() #7
  call void @ERR_set_debug(ptr noundef nonnull @.str, i32 noundef 404, ptr noundef nonnull @__func__.PKCS7_add_signature) #7
  call void (i32, i32, ptr, ...) @ERR_set_error(i32 noundef 33, i32 noundef 151, ptr noundef null) #7
  br label %.thread

.thread:                                          ; preds = %15, %7
  call void @llvm.lifetime.end.p0(i64 4, ptr nonnull %5) #7
  br label %25

16:                                               ; preds = %10
  call void @llvm.lifetime.end.p0(i64 4, ptr nonnull %5) #7
  br label %17

17:                                               ; preds = %16, %4
  %.013 = phi ptr [ %13, %16 ], [ %3, %4 ]
  %18 = call ptr @PKCS7_SIGNER_INFO_new() #7
  %19 = icmp eq ptr %18, null
  br i1 %19, label %25, label %20

20:                                               ; preds = %17
  %21 = call i32 @PKCS7_SIGNER_INFO_set(ptr noundef nonnull %18, ptr noundef %1, ptr noundef %2, ptr noundef nonnull %.013)
  %22 = icmp slt i32 %21, 1
  br i1 %22, label %25, label %23

23:                                               ; preds = %20
  %24 = call i32 @PKCS7_add_signer(ptr noundef %0, ptr noundef nonnull %18)
  %.not = icmp eq i32 %24, 0
  br i1 %.not, label %25, label %26

25:                                               ; preds = %.thread, %23, %20, %17
  %.012 = phi ptr [ null, %17 ], [ %18, %20 ], [ %18, %23 ], [ null, %.thread ]
  call void @PKCS7_SIGNER_INFO_free(ptr noundef %.012) #7
  br label %26

26:                                               ; preds = %23, %25
  %.014 = phi ptr [ null, %25 ], [ %18, %23 ]
  ret ptr %.014
}